target datalayout = "e-m:e-p270:32:32-p271:32:32-p272:64:64-i64:64-i128:128-f80:128-n8:16:32:64-S128"
target triple = "x86_64-pc-linux-gnu"

%struct.lxb_html_tree = type { ptr, ptr, ptr, ptr, ptr, ptr, ptr, %struct.lxb_html_tree_pending_table_t, ptr, i8, i8, i8, i8, i8, i8, ptr, ptr, ptr, i32, i64 }
%struct.lxb_html_tree_pending_table_t = type { ptr, i8 }
%struct.lxb_dom_node = type { %struct.lxb_dom_event_target, i64, i64, i64, ptr, ptr, ptr, ptr, ptr, ptr, ptr, i32, i64 }
%struct.lxb_dom_event_target = type { ptr }
%struct.lxb_html_token_t = type { ptr, ptr, i64, i64, ptr, ptr, ptr, ptr, ptr, i64, i64, i32 }
%struct.lxb_dom_attr = type { %struct.lxb_dom_node, i64, i64, ptr, ptr, ptr, ptr }
%struct.lxb_dom_element = type { %struct.lxb_dom_node, i64, i64, ptr, ptr, ptr, ptr, ptr, i32 }
%struct.lxb_html_token_attr = type { ptr, ptr, ptr, ptr, ptr, ptr, i64, ptr, ptr, i32 }
%struct.lxb_dom_attr_data_t = type { %struct.lexbor_hash_entry, i64, i64, i8 }
%struct.lexbor_hash_entry = type { %union.anon, i64, ptr }
%union.anon = type { ptr, [16 x i8] }

; Function Attrs: nounwind uwtable
define hidden i32 @lxb_html_tree_append_attributes(ptr noundef %0, ptr noundef %1, ptr noundef %2, i64 noundef %3) #0 {
  %5 = alloca i32, align 4
  %6 = alloca ptr, align 8
  %7 = alloca ptr, align 8
  %8 = alloca ptr, align 8
  %9 = alloca i64, align 8
  %10 = alloca i32, align 4
  %11 = alloca ptr, align 8
  %12 = alloca ptr, align 8
  %13 = alloca ptr, align 8
  store ptr %0, ptr %6, align 8
  store ptr %1, ptr %7, align 8
  store ptr %2, ptr %8, align 8
  store i64 %3, ptr %9, align 8
  %14 = load ptr, ptr %8, align 8
  %15 = getelementptr inbounds %struct.lxb_html_token_t, ptr %14, i32 0, i32 6
  %16 = load ptr, ptr %15, align 8
  store ptr %16, ptr %13, align 8
  %17 = load ptr, ptr %7, align 8
  %18 = getelementptr inbounds %struct.lxb_dom_element, ptr %17, i32 0, i32 0
  %19 = getelementptr inbounds %struct.lxb_dom_node, ptr %18, i32 0, i32 4
  %20 = load ptr, ptr %19, align 8
  store ptr %20, ptr %12, align 8
  br label %21

21:                                               ; preds = %90, %32, %4
  %22 = load ptr, ptr %13, align 8
  %23 = icmp ne ptr %22, null
  br i1 %23, label %24, label %97

24:                                               ; preds = %21
  %25 = load ptr, ptr %7, align 8
  %26 = load ptr, ptr %13, align 8
  %27 = getelementptr inbounds %struct.lxb_html_token_attr, ptr %26, i32 0, i32 4
  %28 = load ptr, ptr %27, align 8
  %29 = call ptr @lxb_dom_element_attr_by_local_name_data(ptr noundef %25, ptr noundef %28)
  store ptr %29, ptr %11, align 8
  %30 = load ptr, ptr %11, align 8
  %31 = icmp ne ptr %30, null
  br i1 %31, label %32, label %36

32:                                               ; preds = %24
  %33 = load ptr, ptr %13, align 8
  %34 = getelementptr inbounds %struct.lxb_html_token_attr, ptr %33, i32 0, i32 7
  %35 = load ptr, ptr %34, align 8
  store ptr %35, ptr %13, align 8
  br label %21

36:                                               ; preds = %24
  %37 = load ptr, ptr %12, align 8
  %38 = call ptr @lxb_dom_attr_interface_create(ptr noundef %37)
  store ptr %38, ptr %11, align 8
  %39 = load ptr, ptr %11, align 8
  %40 = icmp eq ptr %39, null
  br i1 %40, label %41, label %42

41:                                               ; preds = %36
  store i32 2, ptr %5, align 4
  br label %98

42:                                               ; preds = %36
  %43 = load ptr, ptr %13, align 8
  %44 = getelementptr inbounds %struct.lxb_html_token_attr, ptr %43, i32 0, i32 2
  %45 = load ptr, ptr %44, align 8
  %46 = icmp ne ptr %45, null
  br i1 %46, label %47, label %61

47:                                               ; preds = %42
  %48 = load ptr, ptr %11, align 8
  %49 = load ptr, ptr %13, align 8
  %50 = getelementptr inbounds %struct.lxb_html_token_attr, ptr %49, i32 0, i32 5
  %51 = load ptr, ptr %50, align 8
  %52 = load ptr, ptr %13, align 8
  %53 = getelementptr inbounds %struct.lxb_html_token_attr, ptr %52, i32 0, i32 6
  %54 = load i64, ptr %53, align 8
  %55 = call i32 @lxb_dom_attr_set_value_wo_copy(ptr noundef %48, ptr noundef %51, i64 noundef %54)
  store i32 %55, ptr %10, align 4
  %56 = load i32, ptr %10, align 4
  %57 = icmp ne i32 %56, 0
  br i1 %57, label %58, label %60

58:                                               ; preds = %47
  %59 = load i32, ptr %10, align 4
  store i32 %59, ptr %5, align 4
  br label %98

60:                                               ; preds = %47
  br label %61

61:                                               ; preds = %60, %42
  %62 = load ptr, ptr %13, align 8
  %63 = getelementptr inbounds %struct.lxb_html_token_attr, ptr %62, i32 0, i32 4
  %64 = load ptr, ptr %63, align 8
  %65 = getelementptr inbounds %struct.lxb_dom_attr_data_t, ptr %64, i32 0, i32 1
  %66 = load i64, ptr %65, align 8
  %67 = load ptr, ptr %11, align 8
  %68 = getelementptr inbounds %struct.lxb_dom_attr, ptr %67, i32 0, i32 0
  %69 = getelementptr inbounds %struct.lxb_dom_node, ptr %68, i32 0, i32 1
  store i64 %66, ptr %69, align 8
  %70 = load i64, ptr %9, align 8
  %71 = load ptr, ptr %11, align 8
  %72 = getelementptr inbounds %struct.lxb_dom_attr, ptr %71, i32 0, i32 0
  %73 = getelementptr inbounds %struct.lxb_dom_node, ptr %72, i32 0, i32 3
  store i64 %70, ptr %73, align 8
  %74 = load ptr, ptr %6, align 8
  %75 = getelementptr inbounds %struct.lxb_html_tree, ptr %74, i32 0, i32 17
  %76 = load ptr, ptr %75, align 8
  %77 = icmp ne ptr %76, null
  br i1 %77, label %78, label %90

78:                                               ; preds = %61
  %79 = load ptr, ptr %6, align 8
  %80 = getelementptr inbounds %struct.lxb_html_tree, ptr %79, i32 0, i32 17
  %81 = load ptr, ptr %80, align 8
  %82 = load ptr, ptr %6, align 8
  %83 = load ptr, ptr %11, align 8
  %84 = call i32 %81(ptr noundef %82, ptr noundef %83, ptr noundef null)
  store i32 %84, ptr %10, align 4
  %85 = load i32, ptr %10, align 4
  %86 = icmp ne i32 %85, 0
  br i1 %86, label %87, label %89

87:                                               ; preds = %78
  %88 = load i32, ptr %10, align 4
  store i32 %88, ptr %5, align 4
  br label %98

89:                                               ; preds = %78
  br label %90

90:                                               ; preds = %89, %61
  %91 = load ptr, ptr %7, align 8
  %92 = load ptr, ptr %11, align 8
  %93 = call i32 @lxb_dom_element_attr_append(ptr noundef %91, ptr noundef %92)
  %94 = load ptr, ptr %13, align 8
  %95 = getelementptr inbounds %struct.lxb_html_token_attr, ptr %94, i32 0, i32 7
  %96 = load ptr, ptr %95, align 8
  store ptr %96, ptr %13, align 8
  br label %21

97:                                               ; preds = %21
  store i32 0, ptr %5, align 4
  br label %98

98:                                               ; preds = %97, %87, %58, %41
  %99 = load i32, ptr %5, align 4
  ret i32 %99
}