; Function Attrs: nounwind uwtable
define hidden i32 @lxb_html_tree_append_attributes(ptr noundef %0, ptr noundef %1, ptr nocapture noundef readonly %2, i64 noundef %3) local_unnamed_addr #0 {
  %5 = getelementptr inbounds i8, ptr %2, i64 48
  %6 = getelementptr inbounds i8, ptr %1, i64 32
  %7 = load ptr, ptr %6, align 8
  %.038 = load ptr, ptr %5, align 8
  %.not39 = icmp eq ptr %.038, null
  br i1 %.not39, label %._crit_edge, label %.lr.ph

.lr.ph:                                           ; preds = %4
  %8 = getelementptr inbounds i8, ptr %0, i64 104
  br label %9

9:                                                ; preds = %.lr.ph, %.backedge
  %.040 = phi ptr [ %.038, %.lr.ph ], [ %.0, %.backedge ]
  %10 = getelementptr inbounds i8, ptr %.040, i64 32
  %11 = load ptr, ptr %10, align 8
  %12 = tail call ptr @lxb_dom_element_attr_by_local_name_data(ptr noundef %1, ptr noundef %11) #9
  %.not33 = icmp eq ptr %12, null
  br i1 %.not33, label %13, label %.backedge

.backedge:                                        ; preds = %9, %34
  %.0.in.be = getelementptr inbounds i8, ptr %.040, i64 56
  %.0 = load ptr, ptr %.0.in.be, align 8
  %.not = icmp eq ptr %.0, null
  br i1 %.not, label %._crit_edge, label %9

13:                                               ; preds = %9
  %14 = tail call ptr @lxb_dom_attr_interface_create(ptr noundef %7) #9
  %15 = icmp eq ptr %14, null
  br i1 %15, label %._crit_edge, label %16

16:                                               ; preds = %13
  %17 = getelementptr inbounds i8, ptr %.040, i64 16
  %18 = load ptr, ptr %17, align 8
  %.not34 = icmp eq ptr %18, null
  br i1 %.not34, label %25, label %19

19:                                               ; preds = %16
  %20 = getelementptr inbounds i8, ptr %.040, i64 40
  %21 = load ptr, ptr %20, align 8
  %22 = getelementptr inbounds i8, ptr %.040, i64 48
  %23 = load i64, ptr %22, align 8
  %24 = tail call i32 @lxb_dom_attr_set_value_wo_copy(ptr noundef nonnull %14, ptr noundef %21, i64 noundef %23) #9
  %.not35 = icmp eq i32 %24, 0
  br i1 %.not35, label %25, label %._crit_edge

25:                                               ; preds = %19, %16
  %26 = load ptr, ptr %10, align 8
  %27 = getelementptr inbounds i8, ptr %26, i64 40
  %28 = load i64, ptr %27, align 8
  %29 = getelementptr inbounds i8, ptr %14, i64 8
  store i64 %28, ptr %29, align 8
  %30 = getelementptr inbounds i8, ptr %14, i64 24
  store i64 %3, ptr %30, align 8
  %31 = load ptr, ptr %8, align 8
  %.not36 = icmp eq ptr %31, null
  br i1 %.not36, label %34, label %32

32:                                               ; preds = %25
  %33 = tail call i32 %31(ptr noundef nonnull %0, ptr noundef nonnull %14, ptr noundef null) #9
  %.not37 = icmp eq i32 %33, 0
  br i1 %.not37, label %34, label %._crit_edge

34:                                               ; preds = %32, %25
  %35 = tail call i32 @lxb_dom_element_attr_append(ptr noundef %1, ptr noundef nonnull %14) #9
  br label %.backedge

._crit_edge:                                      ; preds = %13, %19, %32, %.backedge, %4
  %.028 = phi i32 [ 0, %4 ], [ 0, %.backedge ], [ %33, %32 ], [ %24, %19 ], [ 2, %13 ]
  ret i32 %.028
}